target datalayout = "e-m:e-p270:32:32-p271:32:32-p272:64:64-i64:64-i128:128-f80:128-n8:16:32:64-S128"
target triple = "x86_64-pc-linux-gnu"

%struct.expert_field = type { i32, i32 }

@hf_ansi_801_pref_resp_qual = internal global i32 0, align 4
@hf_ansi_801_num_fixes = internal global i32 0, align 4
@hf_ansi_801_t_betw_fixes = internal global i32 0, align 4
@hf_ansi_801_offset_req = internal global i32 0, align 4
@hf_ansi_801_reserved_24_7 = internal global i32 0, align 4
@ei_ansi_801_extraneous_data = internal global %struct.expert_field zeroinitializer, align 4
@ei_ansi_801_short_data = internal global %struct.expert_field zeroinitializer, align 4

; Function Attrs: null_pointer_is_valid sspstrong uwtable
define internal void @for_req_pseudo_meas(ptr noundef %0, ptr noundef %1, ptr noundef %2, i32 noundef %3, i32 noundef %4) #0 {
  %6 = alloca ptr, align 8
  %7 = alloca ptr, align 8
  %8 = alloca ptr, align 8
  %9 = alloca i32, align 4
  %10 = alloca i32, align 4
  %11 = alloca i32, align 4
  %12 = alloca i32, align 4
  store ptr %0, ptr %6, align 8
  store ptr %1, ptr %7, align 8
  store ptr %2, ptr %8, align 8
  store i32 %3, ptr %9, align 4
  store i32 %4, ptr %10, align 4
  call void @llvm.lifetime.start.p0(i64 4, ptr %11) #6
  %13 = load i32, ptr %10, align 4
  store i32 %13, ptr %11, align 4
  %14 = load i32, ptr %9, align 4
  %15 = icmp ult i32 %14, 3
  br i1 %15, label %16, label %23

16:                                               ; preds = %5
  %17 = load ptr, ptr %8, align 8
  %18 = load ptr, ptr %7, align 8
  %19 = load ptr, ptr %6, align 8
  %20 = load i32, ptr %10, align 4
  %21 = load i32, ptr %9, align 4
  %22 = call ptr @proto_tree_add_expert(ptr noundef %17, ptr noundef %18, ptr noundef @ei_ansi_801_short_data, ptr noundef %19, i32 noundef %20, i32 noundef %21)
  store i32 1, ptr %12, align 4
  br label %68

23:                                               ; preds = %5
  %24 = load ptr, ptr %8, align 8
  %25 = load i32, ptr @hf_ansi_801_pref_resp_qual, align 4
  %26 = load ptr, ptr %6, align 8
  %27 = load i32, ptr %10, align 4
  %28 = call ptr @proto_tree_add_item(ptr noundef %24, i32 noundef %25, ptr noundef %26, i32 noundef %27, i32 noundef 3, i32 noundef 0)
  %29 = load ptr, ptr %8, align 8
  %30 = load i32, ptr @hf_ansi_801_num_fixes, align 4
  %31 = load ptr, ptr %6, align 8
  %32 = load i32, ptr %10, align 4
  %33 = call ptr @proto_tree_add_item(ptr noundef %29, i32 noundef %30, ptr noundef %31, i32 noundef %32, i32 noundef 3, i32 noundef 0)
  %34 = load ptr, ptr %8, align 8
  %35 = load i32, ptr @hf_ansi_801_t_betw_fixes, align 4
  %36 = load ptr, ptr %6, align 8
  %37 = load i32, ptr %10, align 4
  %38 = call ptr @proto_tree_add_item(ptr noundef %34, i32 noundef %35, ptr noundef %36, i32 noundef %37, i32 noundef 3, i32 noundef 0)
  %39 = load ptr, ptr %8, align 8
  %40 = load i32, ptr @hf_ansi_801_offset_req, align 4
  %41 = load ptr, ptr %6, align 8
  %42 = load i32, ptr %10, align 4
  %43 = call ptr @proto_tree_add_item(ptr noundef %39, i32 noundef %40, ptr noundef %41, i32 noundef %42, i32 noundef 3, i32 noundef 0)
  %44 = load ptr, ptr %8, align 8
  %45 = load i32, ptr @hf_ansi_801_reserved_24_7, align 4
  %46 = load ptr, ptr %6, align 8
  %47 = load i32, ptr %10, align 4
  %48 = call ptr @proto_tree_add_item(ptr noundef %44, i32 noundef %45, ptr noundef %46, i32 noundef %47, i32 noundef 3, i32 noundef 0)
  %49 = load i32, ptr %10, align 4
  %50 = add i32 %49, 3
  store i32 %50, ptr %10, align 4
  %51 = load i32, ptr %9, align 4
  %52 = load i32, ptr %10, align 4
  %53 = load i32, ptr %11, align 4
  %54 = sub i32 %52, %53
  %55 = icmp ugt i32 %51, %54
  br i1 %55, label %56, label %67

56:                                               ; preds = %23
  %57 = load ptr, ptr %8, align 8
  %58 = load ptr, ptr %7, align 8
  %59 = load ptr, ptr %6, align 8
  %60 = load i32, ptr %10, align 4
  %61 = load i32, ptr %9, align 4
  %62 = load i32, ptr %10, align 4
  %63 = load i32, ptr %11, align 4
  %64 = sub i32 %62, %63
  %65 = sub i32 %61, %64
  %66 = call ptr @proto_tree_add_expert(ptr noundef %57, ptr noundef %58, ptr noundef @ei_ansi_801_extraneous_data, ptr noundef %59, i32 noundef %60, i32 noundef %65)
  br label %67

67:                                               ; preds = %56, %23
  store i32 0, ptr %12, align 4
  br label %68

68:                                               ; preds = %67, %16
  call void @llvm.lifetime.end.p0(i64 4, ptr %11) #6
  %69 = load i32, ptr %12, align 4
  switch i32 %69, label %71 [
    i32 0, label %70
    i32 1, label %70
  ]

70:                                               ; preds = %68, %68
  ret void

71:                                               ; preds = %68
  unreachable
}